; Function Attrs: nounwind uwtable
define void @lv_display_delete_refr_timer(ptr noundef %0) local_unnamed_addr #0 {
  %.not = icmp eq ptr %0, null
  br i1 %.not, label %2, label %.thread

2:                                                ; preds = %1
  %3 = load ptr, ptr getelementptr inbounds nuw (i8, ptr @lv_global, i64 40), align 8, !tbaa !33
  %.not7 = icmp eq ptr %3, null
  br i1 %.not7, label %7, label %.thread

.thread:                                          ; preds = %1, %2
  %.011 = phi ptr [ %3, %2 ], [ %0, %1 ]
  %4 = getelementptr inbounds nuw i8, ptr %.011, i64 904
  %5 = load ptr, ptr %4, align 8, !tbaa !43
  %.not8 = icmp eq ptr %5, null
  br i1 %.not8, label %7, label %6

6:                                                ; preds = %.thread
  tail call void @lv_timer_delete(ptr noundef nonnull %5) #13
  store ptr null, ptr %4, align 8, !tbaa !43
  br label %7

7:                                                ; preds = %2, %.thread, %6
  ret void
}